target datalayout = "e-m:e-p270:32:32-p271:32:32-p272:64:64-i64:64-i128:128-f80:128-n8:16:32:64-S128"
target triple = "x86_64-pc-linux-gnu"

%struct._exr_decode_pipeline = type { i64, ptr, i16, i16, i32, ptr, %struct.exr_chunk_info_t, i32, i32, i64, ptr, ptr, i64, ptr, i64, ptr, i64, ptr, i64, ptr, i64, ptr, i64, ptr, ptr, ptr, ptr, ptr, ptr, [5 x %struct.exr_coding_channel_info_t] }
%struct.exr_chunk_info_t = type { i32, i32, i32, i32, i32, i8, i8, i8, i8, i64, i64, i64, i64, i64 }
%struct.exr_coding_channel_info_t = type { ptr, i32, i32, i32, i32, i8, i8, i16, i16, i16, i32, i32, %union.anon }
%union.anon = type { ptr }

@internal_exr_match_decode.init_cpu_check = internal global i32 1, align 4

; Function Attrs: nounwind uwtable
define internal void @choose_half_to_float_impl() #0 {
  ret void
}

; Function Attrs: nounwind uwtable
define hidden ptr @internal_exr_match_decode(ptr noundef %0, i32 noundef %1, i32 noundef %2, i32 noundef %3, i32 noundef %4, i32 noundef %5, i32 noundef %6, i32 noundef %7, i32 noundef %8, i32 noundef %9, i32 noundef %10, i32 noundef %11, i32 noundef %12, i32 noundef %13) #0 {
  %15 = alloca ptr, align 8
  %16 = alloca ptr, align 8
  %17 = alloca i32, align 4
  %18 = alloca i32, align 4
  %19 = alloca i32, align 4
  %20 = alloca i32, align 4
  %21 = alloca i32, align 4
  %22 = alloca i32, align 4
  %23 = alloca i32, align 4
  %24 = alloca i32, align 4
  %25 = alloca i32, align 4
  %26 = alloca i32, align 4
  %27 = alloca i32, align 4
  %28 = alloca i32, align 4
  %29 = alloca i32, align 4
  store ptr %0, ptr %16, align 8, !tbaa !3
  store i32 %1, ptr %17, align 4, !tbaa !8
  store i32 %2, ptr %18, align 4, !tbaa !8
  store i32 %3, ptr %19, align 4, !tbaa !8
  store i32 %4, ptr %20, align 4, !tbaa !8
  store i32 %5, ptr %21, align 4, !tbaa !8
  store i32 %6, ptr %22, align 4, !tbaa !8
  store i32 %7, ptr %23, align 4, !tbaa !8
  store i32 %8, ptr %24, align 4, !tbaa !8
  store i32 %9, ptr %25, align 4, !tbaa !8
  store i32 %10, ptr %26, align 4, !tbaa !8
  store i32 %11, ptr %27, align 4, !tbaa !8
  store i32 %12, ptr %28, align 4, !tbaa !8
  store i32 %13, ptr %29, align 4, !tbaa !8
  %30 = load atomic i32, ptr @internal_exr_match_decode.init_cpu_check seq_cst, align 4, !tbaa !10
  %31 = icmp ne i32 %30, 0
  br i1 %31, label %32, label %33

32:                                               ; preds = %14
  call void @choose_half_to_float_impl()
  store atomic i32 0, ptr @internal_exr_match_decode.init_cpu_check seq_cst, align 4, !tbaa !10
  br label %33

33:                                               ; preds = %32, %14
  %34 = load i32, ptr %17, align 4, !tbaa !8
  %35 = icmp ne i32 %34, 0
  br i1 %35, label %36, label %45

36:                                               ; preds = %33
  %37 = load ptr, ptr %16, align 8, !tbaa !3
  %38 = getelementptr inbounds nuw %struct._exr_decode_pipeline, ptr %37, i32 0, i32 3
  %39 = load i16, ptr %38, align 2, !tbaa !11
  %40 = zext i16 %39 to i32
  %41 = and i32 %40, 2
  %42 = icmp ne i32 %41, 0
  br i1 %42, label %43, label %44

43:                                               ; preds = %36
  store ptr @generic_unpack_deep_pointers, ptr %15, align 8
  br label %214

44:                                               ; preds = %36
  store ptr @generic_unpack_deep, ptr %15, align 8
  br label %214

45:                                               ; preds = %33
  %46 = load i32, ptr %25, align 4, !tbaa !8
  %47 = icmp sgt i32 %46, 0
  br i1 %47, label %48, label %120

48:                                               ; preds = %45
  %49 = load i32, ptr %24, align 4, !tbaa !8
  %50 = icmp ne i32 %49, 0
  br i1 %50, label %119, label %51

51:                                               ; preds = %48
  %52 = load i32, ptr %18, align 4, !tbaa !8
  %53 = load ptr, ptr %16, align 8, !tbaa !3
  %54 = getelementptr inbounds nuw %struct._exr_decode_pipeline, ptr %53, i32 0, i32 2
  %55 = load i16, ptr %54, align 8, !tbaa !18
  %56 = sext i16 %55 to i32
  %57 = icmp eq i32 %52, %56
  br i1 %57, label %58, label %119

58:                                               ; preds = %51
  %59 = load i32, ptr %20, align 4, !tbaa !8
  %60 = icmp eq i32 %59, 1
  br i1 %60, label %61, label %119

61:                                               ; preds = %58
  %62 = load i32, ptr %21, align 4, !tbaa !8
  %63 = icmp eq i32 %62, 2
  br i1 %63, label %64, label %119

64:                                               ; preds = %61
  %65 = load i32, ptr %27, align 4, !tbaa !8
  %66 = icmp sgt i32 %65, 0
  br i1 %66, label %67, label %82

67:                                               ; preds = %64
  %68 = load ptr, ptr %16, align 8, !tbaa !3
  %69 = getelementptr inbounds nuw %struct._exr_decode_pipeline, ptr %68, i32 0, i32 2
  %70 = load i16, ptr %69, align 8, !tbaa !18
  %71 = sext i16 %70 to i32
  %72 = icmp eq i32 %71, 4
  br i1 %72, label %73, label %74

73:                                               ; preds = %67
  store ptr @unpack_half_to_float_4chan_interleave, ptr %15, align 8
  br label %214

74:                                               ; preds = %67
  %75 = load ptr, ptr %16, align 8, !tbaa !3
  %76 = getelementptr inbounds nuw %struct._exr_decode_pipeline, ptr %75, i32 0, i32 2
  %77 = load i16, ptr %76, align 8, !tbaa !18
  %78 = sext i16 %77 to i32
  %79 = icmp eq i32 %78, 3
  br i1 %79, label %80, label %81

80:                                               ; preds = %74
  store ptr @unpack_half_to_float_3chan_interleave, ptr %15, align 8
  br label %214

81:                                               ; preds = %74
  br label %82

82:                                               ; preds = %81, %64
  %83 = load i32, ptr %28, align 4, !tbaa !8
  %84 = icmp sgt i32 %83, 0
  br i1 %84, label %85, label %100

85:                                               ; preds = %82
  %86 = load ptr, ptr %16, align 8, !tbaa !3
  %87 = getelementptr inbounds nuw %struct._exr_decode_pipeline, ptr %86, i32 0, i32 2
  %88 = load i16, ptr %87, align 8, !tbaa !18
  %89 = sext i16 %88 to i32
  %90 = icmp eq i32 %89, 4
  br i1 %90, label %91, label %92

91:                                               ; preds = %85
  store ptr @unpack_half_to_float_4chan_interleave_rev, ptr %15, align 8
  br label %214

92:                                               ; preds = %85
  %93 = load ptr, ptr %16, align 8, !tbaa !3
  %94 = getelementptr inbounds nuw %struct._exr_decode_pipeline, ptr %93, i32 0, i32 2
  %95 = load i16, ptr %94, align 8, !tbaa !18
  %96 = sext i16 %95 to i32
  %97 = icmp eq i32 %96, 3
  br i1 %97, label %98, label %99

98:                                               ; preds = %92
  store ptr @unpack_half_to_float_3chan_interleave_rev, ptr %15, align 8
  br label %214

99:                                               ; preds = %92
  br label %100

100:                                              ; preds = %99, %82
  %101 = load i32, ptr %26, align 4, !tbaa !8
  %102 = icmp eq i32 %101, 4
  br i1 %102, label %103, label %118

103:                                              ; preds = %100
  %104 = load ptr, ptr %16, align 8, !tbaa !3
  %105 = getelementptr inbounds nuw %struct._exr_decode_pipeline, ptr %104, i32 0, i32 2
  %106 = load i16, ptr %105, align 8, !tbaa !18
  %107 = sext i16 %106 to i32
  %108 = icmp eq i32 %107, 4
  br i1 %108, label %109, label %110

109:                                              ; preds = %103
  store ptr @unpack_half_to_float_4chan_planar, ptr %15, align 8
  br label %214

110:                                              ; preds = %103
  %111 = load ptr, ptr %16, align 8, !tbaa !3
  %112 = getelementptr inbounds nuw %struct._exr_decode_pipeline, ptr %111, i32 0, i32 2
  %113 = load i16, ptr %112, align 8, !tbaa !18
  %114 = sext i16 %113 to i32
  %115 = icmp eq i32 %114, 3
  br i1 %115, label %116, label %117

116:                                              ; preds = %110
  store ptr @unpack_half_to_float_3chan_planar, ptr %15, align 8
  br label %214

117:                                              ; preds = %110
  br label %118

118:                                              ; preds = %117, %100
  br label %119

119:                                              ; preds = %118, %61, %58, %51, %48
  store ptr @generic_unpack, ptr %15, align 8
  br label %214

120:                                              ; preds = %45
  %121 = load i32, ptr %24, align 4, !tbaa !8
  %122 = icmp ne i32 %121, 0
  br i1 %122, label %136, label %123

123:                                              ; preds = %120
  %124 = load i32, ptr %18, align 4, !tbaa !8
  %125 = load ptr, ptr %16, align 8, !tbaa !3
  %126 = getelementptr inbounds nuw %struct._exr_decode_pipeline, ptr %125, i32 0, i32 2
  %127 = load i16, ptr %126, align 8, !tbaa !18
  %128 = sext i16 %127 to i32
  %129 = icmp ne i32 %124, %128
  br i1 %129, label %136, label %130

130:                                              ; preds = %123
  %131 = load i32, ptr %22, align 4, !tbaa !8
  %132 = icmp sle i32 %131, 0
  br i1 %132, label %136, label %133

133:                                              ; preds = %130
  %134 = load i32, ptr %23, align 4, !tbaa !8
  %135 = icmp sle i32 %134, 0
  br i1 %135, label %136, label %137

136:                                              ; preds = %133, %130, %123, %120
  store ptr @generic_unpack, ptr %15, align 8
  br label %214

137:                                              ; preds = %133
  %138 = load i32, ptr %22, align 4, !tbaa !8
  %139 = icmp eq i32 %138, 2
  br i1 %139, label %140, label %209

140:                                              ; preds = %137
  %141 = load i32, ptr %27, align 4, !tbaa !8
  %142 = icmp sgt i32 %141, 0
  br i1 %142, label %143, label %158

143:                                              ; preds = %140
  %144 = load ptr, ptr %16, align 8, !tbaa !3
  %145 = getelementptr inbounds nuw %struct._exr_decode_pipeline, ptr %144, i32 0, i32 2
  %146 = load i16, ptr %145, align 8, !tbaa !18
  %147 = sext i16 %146 to i32
  %148 = icmp eq i32 %147, 4
  br i1 %148, label %149, label %150

149:                                              ; preds = %143
  store ptr @unpack_16bit_4chan_interleave, ptr %15, align 8
  br label %214

150:                                              ; preds = %143
  %151 = load ptr, ptr %16, align 8, !tbaa !3
  %152 = getelementptr inbounds nuw %struct._exr_decode_pipeline, ptr %151, i32 0, i32 2
  %153 = load i16, ptr %152, align 8, !tbaa !18
  %154 = sext i16 %153 to i32
  %155 = icmp eq i32 %154, 3
  br i1 %155, label %156, label %157

156:                                              ; preds = %150
  store ptr @unpack_16bit_3chan_interleave, ptr %15, align 8
  br label %214

157:                                              ; preds = %150
  br label %158

158:                                              ; preds = %157, %140
  %159 = load i32, ptr %28, align 4, !tbaa !8
  %160 = icmp sgt i32 %159, 0
  br i1 %160, label %161, label %176

161:                                              ; preds = %158
  %162 = load ptr, ptr %16, align 8, !tbaa !3
  %163 = getelementptr inbounds nuw %struct._exr_decode_pipeline, ptr %162, i32 0, i32 2
  %164 = load i16, ptr %163, align 8, !tbaa !18
  %165 = sext i16 %164 to i32
  %166 = icmp eq i32 %165, 4
  br i1 %166, label %167, label %168

167:                                              ; preds = %161
  store ptr @unpack_16bit_4chan_interleave_rev, ptr %15, align 8
  br label %214

168:                                              ; preds = %161
  %169 = load ptr, ptr %16, align 8, !tbaa !3
  %170 = getelementptr inbounds nuw %struct._exr_decode_pipeline, ptr %169, i32 0, i32 2
  %171 = load i16, ptr %170, align 8, !tbaa !18
  %172 = sext i16 %171 to i32
  %173 = icmp eq i32 %172, 3
  br i1 %173, label %174, label %175

174:                                              ; preds = %168
  store ptr @unpack_16bit_3chan_interleave_rev, ptr %15, align 8
  br label %214

175:                                              ; preds = %168
  br label %176

176:                                              ; preds = %175, %158
  %177 = load i32, ptr %26, align 4, !tbaa !8
  %178 = icmp eq i32 %177, 2
  br i1 %178, label %179, label %194

179:                                              ; preds = %176
  %180 = load ptr, ptr %16, align 8, !tbaa !3
  %181 = getelementptr inbounds nuw %struct._exr_decode_pipeline, ptr %180, i32 0, i32 2
  %182 = load i16, ptr %181, align 8, !tbaa !18
  %183 = sext i16 %182 to i32
  %184 = icmp eq i32 %183, 4
  br i1 %184, label %185, label %186

185:                                              ; preds = %179
  store ptr @unpack_16bit_4chan_planar, ptr %15, align 8
  br label %214

186:                                              ; preds = %179
  %187 = load ptr, ptr %16, align 8, !tbaa !3
  %188 = getelementptr inbounds nuw %struct._exr_decode_pipeline, ptr %187, i32 0, i32 2
  %189 = load i16, ptr %188, align 8, !tbaa !18
  %190 = sext i16 %189 to i32
  %191 = icmp eq i32 %190, 3
  br i1 %191, label %192, label %193

192:                                              ; preds = %186
  store ptr @unpack_16bit_3chan_planar, ptr %15, align 8
  br label %214

193:                                              ; preds = %186
  br label %194

194:                                              ; preds = %193, %176
  %195 = load ptr, ptr %16, align 8, !tbaa !3
  %196 = getelementptr inbounds nuw %struct._exr_decode_pipeline, ptr %195, i32 0, i32 2
  %197 = load i16, ptr %196, align 8, !tbaa !18
  %198 = sext i16 %197 to i32
  %199 = icmp eq i32 %198, 4
  br i1 %199, label %200, label %201

200:                                              ; preds = %194
  store ptr @unpack_16bit_4chan, ptr %15, align 8
  br label %214

201:                                              ; preds = %194
  %202 = load ptr, ptr %16, align 8, !tbaa !3
  %203 = getelementptr inbounds nuw %struct._exr_decode_pipeline, ptr %202, i32 0, i32 2
  %204 = load i16, ptr %203, align 8, !tbaa !18
  %205 = sext i16 %204 to i32
  %206 = icmp eq i32 %205, 3
  br i1 %206, label %207, label %208

207:                                              ; preds = %201
  store ptr @unpack_16bit_3chan, ptr %15, align 8
  br label %214

208:                                              ; preds = %201
  store ptr @unpack_16bit, ptr %15, align 8
  br label %214

209:                                              ; preds = %137
  %210 = load i32, ptr %22, align 4, !tbaa !8
  %211 = icmp eq i32 %210, 4
  br i1 %211, label %212, label %213

212:                                              ; preds = %209
  store ptr @unpack_32bit, ptr %15, align 8
  br label %214

213:                                              ; preds = %209
  store ptr @generic_unpack, ptr %15, align 8
  br label %214

214:                                              ; preds = %213, %212, %208, %207, %200, %192, %185, %174, %167, %156, %149, %136, %119, %116, %109, %98, %91, %80, %73, %44, %43
  %215 = load ptr, ptr %15, align 8
  ret ptr %215
}