; Function Attrs: mustprogress nofree norecurse nounwind willreturn memory(readwrite, argmem: read, inaccessiblemem: none) uwtable
define hidden nonnull ptr @internal_exr_match_decode(ptr noundef readonly captures(none) %0, i32 noundef %1, i32 noundef %2, i32 noundef %3, i32 noundef %4, i32 noundef %5, i32 noundef %6, i32 noundef %7, i32 noundef %8, i32 noundef %9, i32 noundef %10, i32 noundef %11, i32 noundef %12, i32 noundef %13) local_unnamed_addr #0 {
  %15 = load atomic i32, ptr @internal_exr_match_decode.init_cpu_check seq_cst, align 4, !tbaa !3
  %.not = icmp eq i32 %15, 0
  br i1 %.not, label %17, label %16

16:                                               ; preds = %14
  store atomic i32 0, ptr @internal_exr_match_decode.init_cpu_check seq_cst, align 4, !tbaa !3
  br label %17

17:                                               ; preds = %16, %14
  %.not50 = icmp eq i32 %1, 0
  br i1 %.not50, label %22, label %18

18:                                               ; preds = %17
  %19 = getelementptr inbounds nuw i8, ptr %0, i64 18
  %20 = load i16, ptr %19, align 2, !tbaa !6
  %21 = and i16 %20, 2
  %.not53 = icmp eq i16 %21, 0
  %generic_unpack_deep.generic_unpack_deep_pointers = select i1 %.not53, ptr @generic_unpack_deep, ptr @generic_unpack_deep_pointers
  br label %66

22:                                               ; preds = %17
  %23 = icmp sgt i32 %9, 0
  %.not52 = icmp eq i32 %8, 0
  br i1 %23, label %24, label %43

24:                                               ; preds = %22
  br i1 %.not52, label %25, label %66

25:                                               ; preds = %24
  %26 = getelementptr inbounds nuw i8, ptr %0, i64 16
  %27 = load i16, ptr %26, align 8, !tbaa !15
  %28 = sext i16 %27 to i32
  %29 = icmp eq i32 %2, %28
  %30 = icmp eq i32 %4, 1
  %or.cond = and i1 %30, %29
  %31 = icmp eq i32 %5, 2
  %or.cond3 = and i1 %31, %or.cond
  br i1 %or.cond3, label %32, label %66

32:                                               ; preds = %25
  %33 = icmp sgt i32 %11, 0
  br i1 %33, label %34, label %36

34:                                               ; preds = %32
  switch i16 %27, label %36 [
    i16 4, label %66
    i16 3, label %35
  ]

35:                                               ; preds = %34
  br label %66

36:                                               ; preds = %34, %32
  %37 = icmp sgt i32 %12, 0
  br i1 %37, label %38, label %40

38:                                               ; preds = %36
  switch i16 %27, label %40 [
    i16 4, label %66
    i16 3, label %39
  ]

39:                                               ; preds = %38
  br label %66

40:                                               ; preds = %38, %36
  %41 = icmp eq i32 %10, 4
  br i1 %41, label %42, label %66

42:                                               ; preds = %40
  %switch.selectcmp = icmp eq i16 %27, 3
  %switch.select = select i1 %switch.selectcmp, ptr @unpack_half_to_float_3chan_planar, ptr @generic_unpack
  %switch.selectcmp54 = icmp eq i16 %27, 4
  %switch.select55 = select i1 %switch.selectcmp54, ptr @unpack_half_to_float_4chan_planar, ptr %switch.select
  br label %66

43:                                               ; preds = %22
  br i1 %.not52, label %44, label %66

44:                                               ; preds = %43
  %45 = getelementptr inbounds nuw i8, ptr %0, i64 16
  %46 = load i16, ptr %45, align 8, !tbaa !15
  %47 = sext i16 %46 to i32
  %48 = icmp ne i32 %2, %47
  %49 = icmp slt i32 %6, 1
  %or.cond5 = or i1 %49, %48
  %50 = icmp slt i32 %7, 1
  %or.cond7 = or i1 %50, %or.cond5
  br i1 %or.cond7, label %66, label %51

51:                                               ; preds = %44
  switch i32 %6, label %65 [
    i32 2, label %52
    i32 4, label %66
  ]

52:                                               ; preds = %51
  %53 = icmp sgt i32 %11, 0
  br i1 %53, label %54, label %56

54:                                               ; preds = %52
  switch i16 %46, label %56 [
    i16 4, label %66
    i16 3, label %55
  ]

55:                                               ; preds = %54
  br label %66

56:                                               ; preds = %54, %52
  %57 = icmp sgt i32 %12, 0
  br i1 %57, label %58, label %60

58:                                               ; preds = %56
  switch i16 %46, label %60 [
    i16 4, label %66
    i16 3, label %59
  ]

59:                                               ; preds = %58
  br label %66

60:                                               ; preds = %58, %56
  %61 = icmp eq i32 %10, 2
  br i1 %61, label %62, label %64

62:                                               ; preds = %60
  switch i16 %46, label %64 [
    i16 4, label %66
    i16 3, label %63
  ]

63:                                               ; preds = %62
  br label %66

64:                                               ; preds = %62, %60
  %switch.selectcmp56 = icmp eq i16 %46, 3
  %switch.select57 = select i1 %switch.selectcmp56, ptr @unpack_16bit_3chan, ptr @unpack_16bit
  %switch.selectcmp58 = icmp eq i16 %46, 4
  %switch.select59 = select i1 %switch.selectcmp58, ptr @unpack_16bit_4chan, ptr %switch.select57
  br label %66

65:                                               ; preds = %51
  br label %66

66:                                               ; preds = %64, %24, %25, %40, %42, %51, %62, %58, %54, %43, %44, %38, %34, %18, %65, %63, %59, %55, %39, %35
  %.0 = phi ptr [ @unpack_half_to_float_3chan_interleave, %35 ], [ @unpack_half_to_float_3chan_interleave_rev, %39 ], [ @unpack_16bit_3chan_interleave, %55 ], [ @unpack_16bit_3chan_interleave_rev, %59 ], [ @unpack_16bit_3chan_planar, %63 ], [ @generic_unpack, %65 ], [ %generic_unpack_deep.generic_unpack_deep_pointers, %18 ], [ @unpack_half_to_float_4chan_interleave, %34 ], [ @unpack_half_to_float_4chan_interleave_rev, %38 ], [ @generic_unpack, %44 ], [ @generic_unpack, %43 ], [ @unpack_16bit_4chan_interleave, %54 ], [ @unpack_16bit_4chan_interleave_rev, %58 ], [ @unpack_16bit_4chan_planar, %62 ], [ @unpack_32bit, %51 ], [ %switch.select55, %42 ], [ @generic_unpack, %40 ], [ @generic_unpack, %25 ], [ @generic_unpack, %24 ], [ %switch.select59, %64 ]
  ret ptr %.0
}